
mprotect_demo:     file format elf64-x86-64


Disassembly of section .init:

00000000004004f8 <_init>:
  4004f8:	48 83 ec 08          	sub    $0x8,%rsp
  4004fc:	e8 bb 00 00 00       	callq  4005bc <call_gmon_start>
  400501:	e8 4a 01 00 00       	callq  400650 <frame_dummy>
  400506:	e8 d5 02 00 00       	callq  4007e0 <__do_global_ctors_aux>
  40050b:	48 83 c4 08          	add    $0x8,%rsp
  40050f:	c3                   	retq   

Disassembly of section .plt:

0000000000400510 <mprotect@plt-0x10>:
  400510:	ff 35 b2 05 20 00    	pushq  0x2005b2(%rip)        # 600ac8 <_GLOBAL_OFFSET_TABLE_+0x8>
  400516:	ff 25 b4 05 20 00    	jmpq   *0x2005b4(%rip)        # 600ad0 <_GLOBAL_OFFSET_TABLE_+0x10>
  40051c:	0f 1f 40 00          	nopl   0x0(%rax)

0000000000400520 <mprotect@plt>:
  400520:	ff 25 b2 05 20 00    	jmpq   *0x2005b2(%rip)        # 600ad8 <_GLOBAL_OFFSET_TABLE_+0x18>
  400526:	68 00 00 00 00       	pushq  $0x0
  40052b:	e9 e0 ff ff ff       	jmpq   400510 <_init+0x18>

0000000000400530 <printf@plt>:
  400530:	ff 25 aa 05 20 00    	jmpq   *0x2005aa(%rip)        # 600ae0 <_GLOBAL_OFFSET_TABLE_+0x20>
  400536:	68 01 00 00 00       	pushq  $0x1
  40053b:	e9 d0 ff ff ff       	jmpq   400510 <_init+0x18>

0000000000400540 <exit@plt>:
  400540:	ff 25 a2 05 20 00    	jmpq   *0x2005a2(%rip)        # 600ae8 <_GLOBAL_OFFSET_TABLE_+0x28>
  400546:	68 02 00 00 00       	pushq  $0x2
  40054b:	e9 c0 ff ff ff       	jmpq   400510 <_init+0x18>

0000000000400550 <__libc_start_main@plt>:
  400550:	ff 25 9a 05 20 00    	jmpq   *0x20059a(%rip)        # 600af0 <_GLOBAL_OFFSET_TABLE_+0x30>
  400556:	68 03 00 00 00       	pushq  $0x3
  40055b:	e9 b0 ff ff ff       	jmpq   400510 <_init+0x18>

0000000000400560 <strerror@plt>:
  400560:	ff 25 92 05 20 00    	jmpq   *0x200592(%rip)        # 600af8 <_GLOBAL_OFFSET_TABLE_+0x38>
  400566:	68 04 00 00 00       	pushq  $0x4
  40056b:	e9 a0 ff ff ff       	jmpq   400510 <_init+0x18>

0000000000400570 <__errno_location@plt>:
  400570:	ff 25 8a 05 20 00    	jmpq   *0x20058a(%rip)        # 600b00 <_GLOBAL_OFFSET_TABLE_+0x40>
  400576:	68 05 00 00 00       	pushq  $0x5
  40057b:	e9 90 ff ff ff       	jmpq   400510 <_init+0x18>

0000000000400580 <fprintf@plt>:
  400580:	ff 25 82 05 20 00    	jmpq   *0x200582(%rip)        # 600b08 <_GLOBAL_OFFSET_TABLE_+0x48>
  400586:	68 06 00 00 00       	pushq  $0x6
  40058b:	e9 80 ff ff ff       	jmpq   400510 <_init+0x18>

Disassembly of section .text:

0000000000400590 <_start>:
  400590:	31 ed                	xor    %ebp,%ebp
  400592:	49 89 d1             	mov    %rdx,%r9
  400595:	5e                   	pop    %rsi
  400596:	48 89 e2             	mov    %rsp,%rdx
  400599:	48 83 e4 f0          	and    $0xfffffffffffffff0,%rsp
  40059d:	50                   	push   %rax
  40059e:	54                   	push   %rsp
  40059f:	49 c7 c0 40 07 40 00 	mov    $0x400740,%r8
  4005a6:	48 c7 c1 50 07 40 00 	mov    $0x400750,%rcx
  4005ad:	48 c7 c7 74 06 40 00 	mov    $0x400674,%rdi
  4005b4:	e8 97 ff ff ff       	callq  400550 <__libc_start_main@plt>
  4005b9:	f4                   	hlt    
  4005ba:	90                   	nop
  4005bb:	90                   	nop

00000000004005bc <call_gmon_start>:
  4005bc:	48 83 ec 08          	sub    $0x8,%rsp
  4005c0:	48 8b 05 f1 04 20 00 	mov    0x2004f1(%rip),%rax        # 600ab8 <_DYNAMIC+0x190>
  4005c7:	48 85 c0             	test   %rax,%rax
  4005ca:	74 02                	je     4005ce <call_gmon_start+0x12>
  4005cc:	ff d0                	callq  *%rax
  4005ce:	48 83 c4 08          	add    $0x8,%rsp
  4005d2:	c3                   	retq   
  4005d3:	90                   	nop
  4005d4:	90                   	nop
  4005d5:	90                   	nop
  4005d6:	90                   	nop
  4005d7:	90                   	nop
  4005d8:	90                   	nop
  4005d9:	90                   	nop
  4005da:	90                   	nop
  4005db:	90                   	nop
  4005dc:	90                   	nop
  4005dd:	90                   	nop
  4005de:	90                   	nop
  4005df:	90                   	nop

00000000004005e0 <__do_global_dtors_aux>:
  4005e0:	55                   	push   %rbp
  4005e1:	48 89 e5             	mov    %rsp,%rbp
  4005e4:	53                   	push   %rbx
  4005e5:	48 83 ec 08          	sub    $0x8,%rsp
  4005e9:	80 3d 38 05 20 00 00 	cmpb   $0x0,0x200538(%rip)        # 600b28 <completed.6352>
  4005f0:	75 4b                	jne    40063d <__do_global_dtors_aux+0x5d>
  4005f2:	bb 18 09 60 00       	mov    $0x600918,%ebx
  4005f7:	48 8b 05 32 05 20 00 	mov    0x200532(%rip),%rax        # 600b30 <dtor_idx.6354>
  4005fe:	48 81 eb 10 09 60 00 	sub    $0x600910,%rbx
  400605:	48 c1 fb 03          	sar    $0x3,%rbx
  400609:	48 83 eb 01          	sub    $0x1,%rbx
  40060d:	48 39 d8             	cmp    %rbx,%rax
  400610:	73 24                	jae    400636 <__do_global_dtors_aux+0x56>
  400612:	66 0f 1f 44 00 00    	nopw   0x0(%rax,%rax,1)
  400618:	48 83 c0 01          	add    $0x1,%rax
  40061c:	48 89 05 0d 05 20 00 	mov    %rax,0x20050d(%rip)        # 600b30 <dtor_idx.6354>
  400623:	ff 14 c5 10 09 60 00 	callq  *0x600910(,%rax,8)
  40062a:	48 8b 05 ff 04 20 00 	mov    0x2004ff(%rip),%rax        # 600b30 <dtor_idx.6354>
  400631:	48 39 d8             	cmp    %rbx,%rax
  400634:	72 e2                	jb     400618 <__do_global_dtors_aux+0x38>
  400636:	c6 05 eb 04 20 00 01 	movb   $0x1,0x2004eb(%rip)        # 600b28 <completed.6352>
  40063d:	48 83 c4 08          	add    $0x8,%rsp
  400641:	5b                   	pop    %rbx
  400642:	c9                   	leaveq 
  400643:	c3                   	retq   
  400644:	66 66 66 2e 0f 1f 84 	data32 data32 nopw %cs:0x0(%rax,%rax,1)
  40064b:	00 00 00 00 00 

0000000000400650 <frame_dummy>:
  400650:	48 83 3d c8 02 20 00 	cmpq   $0x0,0x2002c8(%rip)        # 600920 <__JCR_END__>
  400657:	00 
  400658:	55                   	push   %rbp
  400659:	48 89 e5             	mov    %rsp,%rbp
  40065c:	74 12                	je     400670 <frame_dummy+0x20>
  40065e:	b8 00 00 00 00       	mov    $0x0,%eax
  400663:	48 85 c0             	test   %rax,%rax
  400666:	74 08                	je     400670 <frame_dummy+0x20>
  400668:	bf 20 09 60 00       	mov    $0x600920,%edi
  40066d:	c9                   	leaveq 
  40066e:	ff e0                	jmpq   *%rax
  400670:	c9                   	leaveq 
  400671:	c3                   	retq   
  400672:	90                   	nop
  400673:	90                   	nop

0000000000400674 <main>:
  400674:	55                   	push   %rbp
  400675:	48 89 e5             	mov    %rsp,%rbp
  400678:	48 83 ec 20          	sub    $0x20,%rsp
  40067c:	ba 14 0b 60 00       	mov    $0x600b14,%edx
  400681:	48 b8 00 f0 ff ff ff 	mov    $0xffffffffff000,%rax
  400688:	ff 0f 00 
  40068b:	48 21 d0             	and    %rdx,%rax
  40068e:	48 89 45 f0          	mov    %rax,-0x10(%rbp)
  400692:	b8 38 08 40 00       	mov    $0x400838,%eax
  400697:	48 8b 55 f0          	mov    -0x10(%rbp),%rdx
  40069b:	48 89 d6             	mov    %rdx,%rsi
  40069e:	48 89 c7             	mov    %rax,%rdi
  4006a1:	b8 00 00 00 00       	mov    $0x0,%eax
  4006a6:	e8 85 fe ff ff       	callq  400530 <printf@plt>
  4006ab:	48 8b 45 f0          	mov    -0x10(%rbp),%rax
  4006af:	ba 07 00 00 00       	mov    $0x7,%edx
  4006b4:	be 00 10 00 00       	mov    $0x1000,%esi
  4006b9:	48 89 c7             	mov    %rax,%rdi
  4006bc:	e8 5f fe ff ff       	callq  400520 <mprotect@plt>
  4006c1:	89 45 ec             	mov    %eax,-0x14(%rbp)
  4006c4:	83 7d ec ff          	cmpl   $0xffffffffffffffff,-0x14(%rbp)
  4006c8:	75 37                	jne    400701 <main+0x8d>
  4006ca:	e8 a1 fe ff ff       	callq  400570 <__errno_location@plt>
  4006cf:	8b 00                	mov    (%rax),%eax
  4006d1:	89 c7                	mov    %eax,%edi
  4006d3:	e8 88 fe ff ff       	callq  400560 <strerror@plt>
  4006d8:	48 89 c2             	mov    %rax,%rdx
  4006db:	b9 40 08 40 00       	mov    $0x400840,%ecx
  4006e0:	48 8b 05 39 04 20 00 	mov    0x200439(%rip),%rax        # 600b20 <__bss_start>
  4006e7:	48 89 ce             	mov    %rcx,%rsi
  4006ea:	48 89 c7             	mov    %rax,%rdi
  4006ed:	b8 00 00 00 00       	mov    $0x0,%eax
  4006f2:	e8 89 fe ff ff       	callq  400580 <fprintf@plt>
  4006f7:	bf 01 00 00 00       	mov    $0x1,%edi
  4006fc:	e8 3f fe ff ff       	callq  400540 <exit@plt>
  400701:	48 c7 45 f8 14 0b 60 	movq   $0x600b14,-0x8(%rbp)
  400708:	00 
  400709:	48 8b 45 f8          	mov    -0x8(%rbp),%rax
  40070d:	ff d0                	callq  *%rax
  40070f:	89 45 ec             	mov    %eax,-0x14(%rbp)
  400712:	b8 4d 08 40 00       	mov    $0x40084d,%eax
  400717:	8b 55 ec             	mov    -0x14(%rbp),%edx
  40071a:	89 d6                	mov    %edx,%esi
  40071c:	48 89 c7             	mov    %rax,%rdi
  40071f:	b8 00 00 00 00       	mov    $0x0,%eax
  400724:	e8 07 fe ff ff       	callq  400530 <printf@plt>
  400729:	bf 00 00 00 00       	mov    $0x0,%edi
  40072e:	e8 0d fe ff ff       	callq  400540 <exit@plt>
  400733:	90                   	nop
  400734:	90                   	nop
  400735:	90                   	nop
  400736:	90                   	nop
  400737:	90                   	nop
  400738:	90                   	nop
  400739:	90                   	nop
  40073a:	90                   	nop
  40073b:	90                   	nop
  40073c:	90                   	nop
  40073d:	90                   	nop
  40073e:	90                   	nop
  40073f:	90                   	nop

0000000000400740 <__libc_csu_fini>:
  400740:	f3 c3                	repz retq 
  400742:	66 66 66 66 66 2e 0f 	data32 data32 data32 data32 nopw %cs:0x0(%rax,%rax,1)
  400749:	1f 84 00 00 00 00 00 

0000000000400750 <__libc_csu_init>:
  400750:	48 89 6c 24 d8       	mov    %rbp,-0x28(%rsp)
  400755:	4c 89 64 24 e0       	mov    %r12,-0x20(%rsp)
  40075a:	48 8d 2d 9b 01 20 00 	lea    0x20019b(%rip),%rbp        # 6008fc <__init_array_end>
  400761:	4c 8d 25 94 01 20 00 	lea    0x200194(%rip),%r12        # 6008fc <__init_array_end>
  400768:	4c 89 6c 24 e8       	mov    %r13,-0x18(%rsp)
  40076d:	4c 89 74 24 f0       	mov    %r14,-0x10(%rsp)
  400772:	4c 89 7c 24 f8       	mov    %r15,-0x8(%rsp)
  400777:	48 89 5c 24 d0       	mov    %rbx,-0x30(%rsp)
  40077c:	48 83 ec 38          	sub    $0x38,%rsp
  400780:	4c 29 e5             	sub    %r12,%rbp
  400783:	41 89 fd             	mov    %edi,%r13d
  400786:	49 89 f6             	mov    %rsi,%r14
  400789:	48 c1 fd 03          	sar    $0x3,%rbp
  40078d:	49 89 d7             	mov    %rdx,%r15
  400790:	e8 63 fd ff ff       	callq  4004f8 <_init>
  400795:	48 85 ed             	test   %rbp,%rbp
  400798:	74 1c                	je     4007b6 <__libc_csu_init+0x66>
  40079a:	31 db                	xor    %ebx,%ebx
  40079c:	0f 1f 40 00          	nopl   0x0(%rax)
  4007a0:	4c 89 fa             	mov    %r15,%rdx
  4007a3:	4c 89 f6             	mov    %r14,%rsi
  4007a6:	44 89 ef             	mov    %r13d,%edi
  4007a9:	41 ff 14 dc          	callq  *(%r12,%rbx,8)
  4007ad:	48 83 c3 01          	add    $0x1,%rbx
  4007b1:	48 39 eb             	cmp    %rbp,%rbx
  4007b4:	72 ea                	jb     4007a0 <__libc_csu_init+0x50>
  4007b6:	48 8b 5c 24 08       	mov    0x8(%rsp),%rbx
  4007bb:	48 8b 6c 24 10       	mov    0x10(%rsp),%rbp
  4007c0:	4c 8b 64 24 18       	mov    0x18(%rsp),%r12
  4007c5:	4c 8b 6c 24 20       	mov    0x20(%rsp),%r13
  4007ca:	4c 8b 74 24 28       	mov    0x28(%rsp),%r14
  4007cf:	4c 8b 7c 24 30       	mov    0x30(%rsp),%r15
  4007d4:	48 83 c4 38          	add    $0x38,%rsp
  4007d8:	c3                   	retq   
  4007d9:	90                   	nop
  4007da:	90                   	nop
  4007db:	90                   	nop
  4007dc:	90                   	nop
  4007dd:	90                   	nop
  4007de:	90                   	nop
  4007df:	90                   	nop

00000000004007e0 <__do_global_ctors_aux>:
  4007e0:	55                   	push   %rbp
  4007e1:	48 89 e5             	mov    %rsp,%rbp
  4007e4:	53                   	push   %rbx
  4007e5:	48 83 ec 08          	sub    $0x8,%rsp
  4007e9:	48 8b 05 10 01 20 00 	mov    0x200110(%rip),%rax        # 600900 <__CTOR_LIST__>
  4007f0:	48 83 f8 ff          	cmp    $0xffffffffffffffff,%rax
  4007f4:	74 19                	je     40080f <__do_global_ctors_aux+0x2f>
  4007f6:	bb 00 09 60 00       	mov    $0x600900,%ebx
  4007fb:	0f 1f 44 00 00       	nopl   0x0(%rax,%rax,1)
  400800:	48 83 eb 08          	sub    $0x8,%rbx
  400804:	ff d0                	callq  *%rax
  400806:	48 8b 03             	mov    (%rbx),%rax
  400809:	48 83 f8 ff          	cmp    $0xffffffffffffffff,%rax
  40080d:	75 f1                	jne    400800 <__do_global_ctors_aux+0x20>
  40080f:	48 83 c4 08          	add    $0x8,%rsp
  400813:	5b                   	pop    %rbx
  400814:	c9                   	leaveq 
  400815:	c3                   	retq   
  400816:	90                   	nop
  400817:	90                   	nop

Disassembly of section .fini:

0000000000400818 <_fini>:
  400818:	48 83 ec 08          	sub    $0x8,%rsp
  40081c:	e8 bf fd ff ff       	callq  4005e0 <__do_global_dtors_aux>
  400821:	48 83 c4 08          	add    $0x8,%rsp
  400825:	c3                   	retq   
